target datalayout = "e-m:e-p270:32:32-p271:32:32-p272:64:64-i64:64-i128:128-f80:128-n8:16:32:64-S128"
target triple = "x86_64-pc-linux-gnu"

%struct.__loadu_si128 = type { <2 x i64> }
%struct.__storeu_si128 = type { <2 x i64> }

@VP8LPredictorsSub_C = external global [16 x ptr], align 16

; Function Attrs: alwaysinline nounwind uwtable
define internal <2 x i64> @_mm_packs_epi32(<2 x i64> noundef %0, <2 x i64> noundef %1) #3 {
  %3 = alloca <2 x i64>, align 16
  %4 = alloca <2 x i64>, align 16
  store <2 x i64> %0, ptr %3, align 16, !tbaa !11
  store <2 x i64> %1, ptr %4, align 16, !tbaa !11
  %5 = load <2 x i64>, ptr %3, align 16, !tbaa !11
  %6 = bitcast <2 x i64> %5 to <4 x i32>
  %7 = load <2 x i64>, ptr %4, align 16, !tbaa !11
  %8 = bitcast <2 x i64> %7 to <4 x i32>
  %9 = call <8 x i16> @llvm.x86.sse2.packssdw.128(<4 x i32> %6, <4 x i32> %8)
  %10 = bitcast <8 x i16> %9 to <2 x i64>
  ret <2 x i64> %10
}

; Function Attrs: alwaysinline nounwind uwtable
define internal <2 x i64> @_mm_sad_epu8(<2 x i64> noundef %0, <2 x i64> noundef %1) #3 {
  %3 = alloca <2 x i64>, align 16
  %4 = alloca <2 x i64>, align 16
  store <2 x i64> %0, ptr %3, align 16, !tbaa !11
  store <2 x i64> %1, ptr %4, align 16, !tbaa !11
  %5 = load <2 x i64>, ptr %3, align 16, !tbaa !11
  %6 = bitcast <2 x i64> %5 to <16 x i8>
  %7 = load <2 x i64>, ptr %4, align 16, !tbaa !11
  %8 = bitcast <2 x i64> %7 to <16 x i8>
  %9 = call <2 x i64> @llvm.x86.sse2.psad.bw(<16 x i8> %6, <16 x i8> %8)
  ret <2 x i64> %9
}

; Function Attrs: alwaysinline nounwind uwtable
define internal <2 x i64> @_mm_unpackhi_epi32(<2 x i64> noundef %0, <2 x i64> noundef %1) #3 {
  %3 = alloca <2 x i64>, align 16
  %4 = alloca <2 x i64>, align 16
  store <2 x i64> %0, ptr %3, align 16, !tbaa !11
  store <2 x i64> %1, ptr %4, align 16, !tbaa !11
  %5 = load <2 x i64>, ptr %3, align 16, !tbaa !11
  %6 = bitcast <2 x i64> %5 to <4 x i32>
  %7 = load <2 x i64>, ptr %4, align 16, !tbaa !11
  %8 = bitcast <2 x i64> %7 to <4 x i32>
  %9 = shufflevector <4 x i32> %6, <4 x i32> %8, <4 x i32> <i32 2, i32 6, i32 3, i32 7>
  %10 = bitcast <4 x i32> %9 to <2 x i64>
  ret <2 x i64> %10
}

; Function Attrs: alwaysinline nounwind uwtable
define internal <2 x i64> @_mm_unpacklo_epi32(<2 x i64> noundef %0, <2 x i64> noundef %1) #3 {
  %3 = alloca <2 x i64>, align 16
  %4 = alloca <2 x i64>, align 16
  store <2 x i64> %0, ptr %3, align 16, !tbaa !11
  store <2 x i64> %1, ptr %4, align 16, !tbaa !11
  %5 = load <2 x i64>, ptr %3, align 16, !tbaa !11
  %6 = bitcast <2 x i64> %5 to <4 x i32>
  %7 = load <2 x i64>, ptr %4, align 16, !tbaa !11
  %8 = bitcast <2 x i64> %7 to <4 x i32>
  %9 = shufflevector <4 x i32> %6, <4 x i32> %8, <4 x i32> <i32 0, i32 4, i32 1, i32 5>
  %10 = bitcast <4 x i32> %9 to <2 x i64>
  ret <2 x i64> %10
}

; Function Attrs: alwaysinline nounwind uwtable
define internal void @_mm_storeu_si128(ptr noundef %0, <2 x i64> noundef %1) #3 {
  %3 = alloca ptr, align 8
  %4 = alloca <2 x i64>, align 16
  store ptr %0, ptr %3, align 8, !tbaa !3
  store <2 x i64> %1, ptr %4, align 16, !tbaa !11
  %5 = load <2 x i64>, ptr %4, align 16, !tbaa !11
  %6 = load ptr, ptr %3, align 8, !tbaa !3
  %7 = getelementptr inbounds nuw %struct.__storeu_si128, ptr %6, i32 0, i32 0
  store <2 x i64> %5, ptr %7, align 1, !tbaa !11
  ret void
}

; Function Attrs: alwaysinline nounwind uwtable
define internal <2 x i64> @_mm_sub_epi8(<2 x i64> noundef %0, <2 x i64> noundef %1) #3 {
  %3 = alloca <2 x i64>, align 16
  %4 = alloca <2 x i64>, align 16
  store <2 x i64> %0, ptr %3, align 16, !tbaa !11
  store <2 x i64> %1, ptr %4, align 16, !tbaa !11
  %5 = load <2 x i64>, ptr %3, align 16, !tbaa !11
  %6 = bitcast <2 x i64> %5 to <16 x i8>
  %7 = load <2 x i64>, ptr %4, align 16, !tbaa !11
  %8 = bitcast <2 x i64> %7 to <16 x i8>
  %9 = sub <16 x i8> %6, %8
  %10 = bitcast <16 x i8> %9 to <2 x i64>
  ret <2 x i64> %10
}

; Function Attrs: alwaysinline nounwind uwtable
define internal <2 x i64> @_mm_or_si128(<2 x i64> noundef %0, <2 x i64> noundef %1) #3 {
  %3 = alloca <2 x i64>, align 16
  %4 = alloca <2 x i64>, align 16
  store <2 x i64> %0, ptr %3, align 16, !tbaa !11
  store <2 x i64> %1, ptr %4, align 16, !tbaa !11
  %5 = load <2 x i64>, ptr %3, align 16, !tbaa !11
  %6 = load <2 x i64>, ptr %4, align 16, !tbaa !11
  %7 = or <2 x i64> %5, %6
  ret <2 x i64> %7
}

; Function Attrs: alwaysinline nounwind uwtable
define internal <2 x i64> @_mm_andnot_si128(<2 x i64> noundef %0, <2 x i64> noundef %1) #3 {
  %3 = alloca <2 x i64>, align 16
  %4 = alloca <2 x i64>, align 16
  store <2 x i64> %0, ptr %3, align 16, !tbaa !11
  store <2 x i64> %1, ptr %4, align 16, !tbaa !11
  %5 = load <2 x i64>, ptr %3, align 16, !tbaa !11
  %6 = xor <2 x i64> %5, splat (i64 -1)
  %7 = load <2 x i64>, ptr %4, align 16, !tbaa !11
  %8 = and <2 x i64> %6, %7
  ret <2 x i64> %8
}

; Function Attrs: alwaysinline nounwind uwtable
define internal <2 x i64> @_mm_and_si128(<2 x i64> noundef %0, <2 x i64> noundef %1) #3 {
  %3 = alloca <2 x i64>, align 16
  %4 = alloca <2 x i64>, align 16
  store <2 x i64> %0, ptr %3, align 16, !tbaa !11
  store <2 x i64> %1, ptr %4, align 16, !tbaa !11
  %5 = load <2 x i64>, ptr %3, align 16, !tbaa !11
  %6 = load <2 x i64>, ptr %4, align 16, !tbaa !11
  %7 = and <2 x i64> %5, %6
  ret <2 x i64> %7
}

; Function Attrs: alwaysinline nounwind uwtable
define internal <2 x i64> @_mm_cmpgt_epi32(<2 x i64> noundef %0, <2 x i64> noundef %1) #3 {
  %3 = alloca <2 x i64>, align 16
  %4 = alloca <2 x i64>, align 16
  store <2 x i64> %0, ptr %3, align 16, !tbaa !11
  store <2 x i64> %1, ptr %4, align 16, !tbaa !11
  %5 = load <2 x i64>, ptr %3, align 16, !tbaa !11
  %6 = bitcast <2 x i64> %5 to <4 x i32>
  %7 = load <2 x i64>, ptr %4, align 16, !tbaa !11
  %8 = bitcast <2 x i64> %7 to <4 x i32>
  %9 = icmp sgt <4 x i32> %6, %8
  %10 = sext <4 x i1> %9 to <4 x i32>
  %11 = bitcast <4 x i32> %10 to <2 x i64>
  ret <2 x i64> %11
}

; Function Attrs: nounwind uwtable
define internal void @GetSumAbsDiff32_SSE2(ptr noundef %0, ptr noundef %1, ptr noundef %2) #1 {
  %4 = alloca ptr, align 8
  %5 = alloca ptr, align 8
  %6 = alloca ptr, align 8
  %7 = alloca <2 x i64>, align 16
  %8 = alloca <2 x i64>, align 16
  %9 = alloca <2 x i64>, align 16
  %10 = alloca <2 x i64>, align 16
  %11 = alloca <2 x i64>, align 16
  %12 = alloca <2 x i64>, align 16
  store ptr %0, ptr %4, align 8, !tbaa !3
  store ptr %1, ptr %5, align 8, !tbaa !3
  store ptr %2, ptr %6, align 8, !tbaa !3
  call void @llvm.lifetime.start.p0(i64 16, ptr %7) #9
  %13 = load ptr, ptr %4, align 8, !tbaa !3
  %14 = load <2 x i64>, ptr %13, align 16, !tbaa !11
  %15 = load ptr, ptr %4, align 8, !tbaa !3
  %16 = load <2 x i64>, ptr %15, align 16, !tbaa !11
  %17 = call <2 x i64> @_mm_unpacklo_epi32(<2 x i64> noundef %14, <2 x i64> noundef %16)
  store <2 x i64> %17, ptr %7, align 16, !tbaa !11
  call void @llvm.lifetime.start.p0(i64 16, ptr %8) #9
  %18 = load ptr, ptr %5, align 8, !tbaa !3
  %19 = load <2 x i64>, ptr %18, align 16, !tbaa !11
  %20 = load ptr, ptr %4, align 8, !tbaa !3
  %21 = load <2 x i64>, ptr %20, align 16, !tbaa !11
  %22 = call <2 x i64> @_mm_unpacklo_epi32(<2 x i64> noundef %19, <2 x i64> noundef %21)
  store <2 x i64> %22, ptr %8, align 16, !tbaa !11
  call void @llvm.lifetime.start.p0(i64 16, ptr %9) #9
  %23 = load ptr, ptr %4, align 8, !tbaa !3
  %24 = load <2 x i64>, ptr %23, align 16, !tbaa !11
  %25 = load ptr, ptr %4, align 8, !tbaa !3
  %26 = load <2 x i64>, ptr %25, align 16, !tbaa !11
  %27 = call <2 x i64> @_mm_unpackhi_epi32(<2 x i64> noundef %24, <2 x i64> noundef %26)
  store <2 x i64> %27, ptr %9, align 16, !tbaa !11
  call void @llvm.lifetime.start.p0(i64 16, ptr %10) #9
  %28 = load ptr, ptr %5, align 8, !tbaa !3
  %29 = load <2 x i64>, ptr %28, align 16, !tbaa !11
  %30 = load ptr, ptr %4, align 8, !tbaa !3
  %31 = load <2 x i64>, ptr %30, align 16, !tbaa !11
  %32 = call <2 x i64> @_mm_unpackhi_epi32(<2 x i64> noundef %29, <2 x i64> noundef %31)
  store <2 x i64> %32, ptr %10, align 16, !tbaa !11
  call void @llvm.lifetime.start.p0(i64 16, ptr %11) #9
  %33 = load <2 x i64>, ptr %7, align 16, !tbaa !11
  %34 = load <2 x i64>, ptr %8, align 16, !tbaa !11
  %35 = call <2 x i64> @_mm_sad_epu8(<2 x i64> noundef %33, <2 x i64> noundef %34)
  store <2 x i64> %35, ptr %11, align 16, !tbaa !11
  call void @llvm.lifetime.start.p0(i64 16, ptr %12) #9
  %36 = load <2 x i64>, ptr %9, align 16, !tbaa !11
  %37 = load <2 x i64>, ptr %10, align 16, !tbaa !11
  %38 = call <2 x i64> @_mm_sad_epu8(<2 x i64> noundef %36, <2 x i64> noundef %37)
  store <2 x i64> %38, ptr %12, align 16, !tbaa !11
  %39 = load <2 x i64>, ptr %11, align 16, !tbaa !11
  %40 = load <2 x i64>, ptr %12, align 16, !tbaa !11
  %41 = call <2 x i64> @_mm_packs_epi32(<2 x i64> noundef %39, <2 x i64> noundef %40)
  %42 = load ptr, ptr %6, align 8, !tbaa !3
  store <2 x i64> %41, ptr %42, align 16, !tbaa !11
  call void @llvm.lifetime.end.p0(i64 16, ptr %12) #9
  call void @llvm.lifetime.end.p0(i64 16, ptr %11) #9
  call void @llvm.lifetime.end.p0(i64 16, ptr %10) #9
  call void @llvm.lifetime.end.p0(i64 16, ptr %9) #9
  call void @llvm.lifetime.end.p0(i64 16, ptr %8) #9
  call void @llvm.lifetime.end.p0(i64 16, ptr %7) #9
  ret void
}

; Function Attrs: alwaysinline nounwind uwtable
define internal <2 x i64> @_mm_loadu_si128(ptr noundef %0) #3 {
  %2 = alloca ptr, align 8
  store ptr %0, ptr %2, align 8, !tbaa !3
  %3 = load ptr, ptr %2, align 8, !tbaa !3
  %4 = getelementptr inbounds nuw %struct.__loadu_si128, ptr %3, i32 0, i32 0
  %5 = load <2 x i64>, ptr %4, align 1, !tbaa !11
  ret <2 x i64> %5
}

; Function Attrs: nounwind uwtable
define internal void @PredictorSub11_SSE2(ptr noundef %0, ptr noundef %1, i32 noundef %2, ptr noalias noundef %3) #1 {
  %5 = alloca ptr, align 8
  %6 = alloca ptr, align 8
  %7 = alloca i32, align 4
  %8 = alloca ptr, align 8
  %9 = alloca i32, align 4
  %10 = alloca <2 x i64>, align 16
  %11 = alloca <2 x i64>, align 16
  %12 = alloca <2 x i64>, align 16
  %13 = alloca <2 x i64>, align 16
  %14 = alloca <2 x i64>, align 16
  %15 = alloca <2 x i64>, align 16
  %16 = alloca <2 x i64>, align 16
  %17 = alloca <2 x i64>, align 16
  %18 = alloca <2 x i64>, align 16
  %19 = alloca <2 x i64>, align 16
  %20 = alloca <2 x i64>, align 16
  store ptr %0, ptr %5, align 8, !tbaa !7
  store ptr %1, ptr %6, align 8, !tbaa !7
  store i32 %2, ptr %7, align 4, !tbaa !9
  store ptr %3, ptr %8, align 8, !tbaa !7
  call void @llvm.lifetime.start.p0(i64 4, ptr %9) #9
  store i32 0, ptr %9, align 4, !tbaa !9
  br label %21

21:                                               ; preds = %69, %4
  %22 = load i32, ptr %9, align 4, !tbaa !9
  %23 = add nsw i32 %22, 4
  %24 = load i32, ptr %7, align 4, !tbaa !9
  %25 = icmp sle i32 %23, %24
  br i1 %25, label %26, label %72

26:                                               ; preds = %21
  call void @llvm.lifetime.start.p0(i64 16, ptr %10) #9
  %27 = load ptr, ptr %5, align 8, !tbaa !7
  %28 = load i32, ptr %9, align 4, !tbaa !9
  %29 = sub nsw i32 %28, 1
  %30 = sext i32 %29 to i64
  %31 = getelementptr inbounds i32, ptr %27, i64 %30
  %32 = call <2 x i64> @_mm_loadu_si128(ptr noundef %31)
  store <2 x i64> %32, ptr %10, align 16, !tbaa !11
  call void @llvm.lifetime.start.p0(i64 16, ptr %11) #9
  %33 = load ptr, ptr %6, align 8, !tbaa !7
  %34 = load i32, ptr %9, align 4, !tbaa !9
  %35 = sext i32 %34 to i64
  %36 = getelementptr inbounds i32, ptr %33, i64 %35
  %37 = call <2 x i64> @_mm_loadu_si128(ptr noundef %36)
  store <2 x i64> %37, ptr %11, align 16, !tbaa !11
  call void @llvm.lifetime.start.p0(i64 16, ptr %12) #9
  %38 = load ptr, ptr %6, align 8, !tbaa !7
  %39 = load i32, ptr %9, align 4, !tbaa !9
  %40 = sub nsw i32 %39, 1
  %41 = sext i32 %40 to i64
  %42 = getelementptr inbounds i32, ptr %38, i64 %41
  %43 = call <2 x i64> @_mm_loadu_si128(ptr noundef %42)
  store <2 x i64> %43, ptr %12, align 16, !tbaa !11
  call void @llvm.lifetime.start.p0(i64 16, ptr %13) #9
  %44 = load ptr, ptr %5, align 8, !tbaa !7
  %45 = load i32, ptr %9, align 4, !tbaa !9
  %46 = sext i32 %45 to i64
  %47 = getelementptr inbounds i32, ptr %44, i64 %46
  %48 = call <2 x i64> @_mm_loadu_si128(ptr noundef %47)
  store <2 x i64> %48, ptr %13, align 16, !tbaa !11
  call void @llvm.lifetime.start.p0(i64 16, ptr %14) #9
  call void @llvm.lifetime.start.p0(i64 16, ptr %15) #9
  call void @GetSumAbsDiff32_SSE2(ptr noundef %11, ptr noundef %12, ptr noundef %14)
  call void @GetSumAbsDiff32_SSE2(ptr noundef %10, ptr noundef %12, ptr noundef %15)
  call void @llvm.lifetime.start.p0(i64 16, ptr %16) #9
  %49 = load <2 x i64>, ptr %15, align 16, !tbaa !11
  %50 = load <2 x i64>, ptr %14, align 16, !tbaa !11
  %51 = call <2 x i64> @_mm_cmpgt_epi32(<2 x i64> noundef %49, <2 x i64> noundef %50)
  store <2 x i64> %51, ptr %16, align 16, !tbaa !11
  call void @llvm.lifetime.start.p0(i64 16, ptr %17) #9
  %52 = load <2 x i64>, ptr %16, align 16, !tbaa !11
  %53 = load <2 x i64>, ptr %10, align 16, !tbaa !11
  %54 = call <2 x i64> @_mm_and_si128(<2 x i64> noundef %52, <2 x i64> noundef %53)
  store <2 x i64> %54, ptr %17, align 16, !tbaa !11
  call void @llvm.lifetime.start.p0(i64 16, ptr %18) #9
  %55 = load <2 x i64>, ptr %16, align 16, !tbaa !11
  %56 = load <2 x i64>, ptr %11, align 16, !tbaa !11
  %57 = call <2 x i64> @_mm_andnot_si128(<2 x i64> noundef %55, <2 x i64> noundef %56)
  store <2 x i64> %57, ptr %18, align 16, !tbaa !11
  call void @llvm.lifetime.start.p0(i64 16, ptr %19) #9
  %58 = load <2 x i64>, ptr %17, align 16, !tbaa !11
  %59 = load <2 x i64>, ptr %18, align 16, !tbaa !11
  %60 = call <2 x i64> @_mm_or_si128(<2 x i64> noundef %58, <2 x i64> noundef %59)
  store <2 x i64> %60, ptr %19, align 16, !tbaa !11
  call void @llvm.lifetime.start.p0(i64 16, ptr %20) #9
  %61 = load <2 x i64>, ptr %13, align 16, !tbaa !11
  %62 = load <2 x i64>, ptr %19, align 16, !tbaa !11
  %63 = call <2 x i64> @_mm_sub_epi8(<2 x i64> noundef %61, <2 x i64> noundef %62)
  store <2 x i64> %63, ptr %20, align 16, !tbaa !11
  %64 = load ptr, ptr %8, align 8, !tbaa !7
  %65 = load i32, ptr %9, align 4, !tbaa !9
  %66 = sext i32 %65 to i64
  %67 = getelementptr inbounds i32, ptr %64, i64 %66
  %68 = load <2 x i64>, ptr %20, align 16, !tbaa !11
  call void @_mm_storeu_si128(ptr noundef %67, <2 x i64> noundef %68)
  call void @llvm.lifetime.end.p0(i64 16, ptr %20) #9
  call void @llvm.lifetime.end.p0(i64 16, ptr %19) #9
  call void @llvm.lifetime.end.p0(i64 16, ptr %18) #9
  call void @llvm.lifetime.end.p0(i64 16, ptr %17) #9
  call void @llvm.lifetime.end.p0(i64 16, ptr %16) #9
  call void @llvm.lifetime.end.p0(i64 16, ptr %15) #9
  call void @llvm.lifetime.end.p0(i64 16, ptr %14) #9
  call void @llvm.lifetime.end.p0(i64 16, ptr %13) #9
  call void @llvm.lifetime.end.p0(i64 16, ptr %12) #9
  call void @llvm.lifetime.end.p0(i64 16, ptr %11) #9
  call void @llvm.lifetime.end.p0(i64 16, ptr %10) #9
  br label %69

69:                                               ; preds = %26
  %70 = load i32, ptr %9, align 4, !tbaa !9
  %71 = add nsw i32 %70, 4
  store i32 %71, ptr %9, align 4, !tbaa !9
  br label %21, !llvm.loop !52

72:                                               ; preds = %21
  %73 = load i32, ptr %9, align 4, !tbaa !9
  %74 = load i32, ptr %7, align 4, !tbaa !9
  %75 = icmp ne i32 %73, %74
  br i1 %75, label %76, label %93

76:                                               ; preds = %72
  %77 = load ptr, ptr getelementptr inbounds ([16 x ptr], ptr @VP8LPredictorsSub_C, i64 0, i64 11), align 8, !tbaa !3
  %78 = load ptr, ptr %5, align 8, !tbaa !7
  %79 = load i32, ptr %9, align 4, !tbaa !9
  %80 = sext i32 %79 to i64
  %81 = getelementptr inbounds i32, ptr %78, i64 %80
  %82 = load ptr, ptr %6, align 8, !tbaa !7
  %83 = load i32, ptr %9, align 4, !tbaa !9
  %84 = sext i32 %83 to i64
  %85 = getelementptr inbounds i32, ptr %82, i64 %84
  %86 = load i32, ptr %7, align 4, !tbaa !9
  %87 = load i32, ptr %9, align 4, !tbaa !9
  %88 = sub nsw i32 %86, %87
  %89 = load ptr, ptr %8, align 8, !tbaa !7
  %90 = load i32, ptr %9, align 4, !tbaa !9
  %91 = sext i32 %90 to i64
  %92 = getelementptr inbounds i32, ptr %89, i64 %91
  call void %77(ptr noundef %81, ptr noundef %85, i32 noundef %88, ptr noundef %92)
  br label %93

93:                                               ; preds = %76, %72
  call void @llvm.lifetime.end.p0(i64 4, ptr %9) #9
  ret void
}