; Function Attrs: nounwind uwtable
define internal void @PredictorSub11_SSE2(ptr noundef %0, ptr noundef %1, i32 noundef %2, ptr noalias noundef %3) #1 {
  %.not46 = icmp slt i32 %2, 4
  br i1 %.not46, label %._crit_edge, label %.lr.ph.preheader

.lr.ph.preheader:                                 ; preds = %4
  %5 = zext nneg i32 %2 to i64
  br label %.lr.ph

.lr.ph:                                           ; preds = %.lr.ph.preheader, %.lr.ph
  %indvars.iv48 = phi i64 [ 0, %.lr.ph.preheader ], [ %indvars.iv.next49, %.lr.ph ]
  %indvars.iv = phi i64 [ 4, %.lr.ph.preheader ], [ %indvars.iv.next, %.lr.ph ]
  %6 = add nsw i64 %indvars.iv48, -1
  %7 = getelementptr inbounds i32, ptr %0, i64 %6
  %8 = load <4 x i32>, ptr %7, align 1, !tbaa !7
  %9 = getelementptr inbounds nuw i32, ptr %1, i64 %indvars.iv48
  %10 = load <4 x i32>, ptr %9, align 1, !tbaa !7
  %11 = getelementptr inbounds i32, ptr %1, i64 %6
  %12 = load <4 x i32>, ptr %11, align 1, !tbaa !7
  %13 = getelementptr inbounds nuw i32, ptr %0, i64 %indvars.iv48
  %14 = load <16 x i8>, ptr %13, align 1, !tbaa !7
  %15 = shufflevector <4 x i32> %10, <4 x i32> poison, <4 x i32> <i32 0, i32 0, i32 1, i32 1>
  %16 = shufflevector <4 x i32> %12, <4 x i32> %10, <4 x i32> <i32 0, i32 4, i32 1, i32 5>
  %17 = shufflevector <4 x i32> %10, <4 x i32> poison, <4 x i32> <i32 2, i32 2, i32 3, i32 3>
  %18 = shufflevector <4 x i32> %12, <4 x i32> %10, <4 x i32> <i32 2, i32 6, i32 3, i32 7>
  %19 = bitcast <4 x i32> %15 to <16 x i8>
  %20 = bitcast <4 x i32> %16 to <16 x i8>
  %21 = tail call <2 x i64> @llvm.x86.sse2.psad.bw(<16 x i8> %19, <16 x i8> %20)
  %22 = bitcast <4 x i32> %17 to <16 x i8>
  %23 = bitcast <4 x i32> %18 to <16 x i8>
  %24 = tail call <2 x i64> @llvm.x86.sse2.psad.bw(<16 x i8> %22, <16 x i8> %23)
  %25 = bitcast <2 x i64> %21 to <4 x i32>
  %26 = bitcast <2 x i64> %24 to <4 x i32>
  %27 = tail call <8 x i16> @llvm.x86.sse2.packssdw.128(<4 x i32> %25, <4 x i32> %26)
  %28 = shufflevector <4 x i32> %8, <4 x i32> poison, <4 x i32> <i32 0, i32 0, i32 1, i32 1>
  %29 = shufflevector <4 x i32> %12, <4 x i32> %8, <4 x i32> <i32 0, i32 4, i32 1, i32 5>
  %30 = shufflevector <4 x i32> %8, <4 x i32> poison, <4 x i32> <i32 2, i32 2, i32 3, i32 3>
  %31 = shufflevector <4 x i32> %12, <4 x i32> %8, <4 x i32> <i32 2, i32 6, i32 3, i32 7>
  %32 = bitcast <4 x i32> %28 to <16 x i8>
  %33 = bitcast <4 x i32> %29 to <16 x i8>
  %34 = tail call <2 x i64> @llvm.x86.sse2.psad.bw(<16 x i8> %32, <16 x i8> %33)
  %35 = bitcast <4 x i32> %30 to <16 x i8>
  %36 = bitcast <4 x i32> %31 to <16 x i8>
  %37 = tail call <2 x i64> @llvm.x86.sse2.psad.bw(<16 x i8> %35, <16 x i8> %36)
  %38 = bitcast <2 x i64> %34 to <4 x i32>
  %39 = bitcast <2 x i64> %37 to <4 x i32>
  %40 = tail call <8 x i16> @llvm.x86.sse2.packssdw.128(<4 x i32> %38, <4 x i32> %39)
  %41 = bitcast <8 x i16> %40 to <4 x i32>
  %42 = bitcast <8 x i16> %27 to <4 x i32>
  %43 = icmp sgt <4 x i32> %41, %42
  %44 = select <4 x i1> %43, <4 x i32> %8, <4 x i32> %10
  %45 = bitcast <4 x i32> %44 to <16 x i8>
  %46 = sub <16 x i8> %14, %45
  %47 = getelementptr inbounds nuw i32, ptr %3, i64 %indvars.iv48
  store <16 x i8> %46, ptr %47, align 1, !tbaa !7
  %indvars.iv.next = add nuw nsw i64 %indvars.iv, 4
  %.not = icmp samesign ugt i64 %indvars.iv.next, %5
  %indvars.iv.next49 = add nuw nsw i64 %indvars.iv48, 4
  br i1 %.not, label %._crit_edge.loopexit, label %.lr.ph, !llvm.loop !48

._crit_edge.loopexit:                             ; preds = %.lr.ph
  %48 = trunc nuw nsw i64 %indvars.iv to i32
  br label %._crit_edge

._crit_edge:                                      ; preds = %._crit_edge.loopexit, %4
  %.0.lcssa = phi i32 [ 0, %4 ], [ %48, %._crit_edge.loopexit ]
  %.not31 = icmp eq i32 %.0.lcssa, %2
  br i1 %.not31, label %56, label %49

49:                                               ; preds = %._crit_edge
  %50 = load ptr, ptr getelementptr inbounds nuw (i8, ptr @VP8LPredictorsSub_C, i64 88), align 8, !tbaa !3
  %51 = zext nneg i32 %.0.lcssa to i64
  %52 = getelementptr inbounds nuw i32, ptr %0, i64 %51
  %53 = getelementptr inbounds nuw i32, ptr %1, i64 %51
  %54 = sub nsw i32 %2, %.0.lcssa
  %55 = getelementptr inbounds nuw i32, ptr %3, i64 %51
  tail call void %50(ptr noundef %52, ptr noundef %53, i32 noundef %54, ptr noundef %55) #8
  br label %56

56:                                               ; preds = %49, %._crit_edge
  ret void
}